; Function Attrs: mustprogress sspstrong uwtable
define hidden noalias noundef ptr @_ZN4FLAC8Metadata5local15construct_blockEP20FLAC__StreamMetadata(ptr noundef %object) local_unnamed_addr #0 personality ptr @__gxx_personality_v0 {
entry:
  %cmp = icmp eq ptr %object, null
  br i1 %cmp, label %return, label %if.end

if.end:                                           ; preds = %entry
  %0 = load i32, ptr %object, align 8
  %call25 = tail call noalias noundef nonnull dereferenceable(24) ptr @_Znwm(i64 noundef 24) #19
  %object_.i.i23 = getelementptr inbounds i8, ptr %call25, i64 8
  store ptr %object, ptr %object_.i.i23, align 8
  %is_reference_.i.i24 = getelementptr inbounds i8, ptr %call25, i64 16
  store i8 0, ptr %is_reference_.i.i24, align 8
  %1 = icmp ult i32 %0, 7
  br i1 %1, label %switch.lookup, label %return.sink.split

switch.lookup:                                    ; preds = %if.end
  %2 = zext nneg i32 %0 to i64
  %switch.gep = getelementptr inbounds [7 x ptr], ptr @switch.table._ZN4FLAC8Metadata8Iterator9get_blockEv, i64 0, i64 %2
  %switch.load = load ptr, ptr %switch.gep, align 8
  br label %return.sink.split

return.sink.split:                                ; preds = %if.end, %switch.lookup
  %.sink = phi ptr [ %switch.load, %switch.lookup ], [ getelementptr inbounds ({ [5 x ptr] }, ptr @_ZTVN4FLAC8Metadata7UnknownE, i64 0, i32 0, i64 2), %if.end ]
  store ptr %.sink, ptr %call25, align 8
  br label %return

return:                                           ; preds = %return.sink.split, %entry
  %retval.0 = phi ptr [ null, %entry ], [ %call25, %return.sink.split ]
  ret ptr %retval.0
}